target datalayout = "e-m:e-p270:32:32-p271:32:32-p272:64:64-i64:64-i128:128-f80:128-n8:16:32:64-S128"
target triple = "x86_64-pc-linux-gnu"

%struct.settings = type { i64, i32, i32, i32, ptr, i32, i32, i32, ptr, ptr, i32, double, i32, i32, i32, i8, i32, i32, i8, i32, i32, i32, i32, i32, i32, i8, i8, i8, i8, i8, i8, i8, i32, i32, double, double, i32, i32, i8, i32, i8, i8, ptr, i32, i32, i32, i32, double, double, i32, i8, i32, i32, i32, i32, i32, i8, i8, i8, ptr, i32, i32, i32, i32, i32, i32, i32, i32, i32, i32, double, i8, i32, i32, ptr, i32 }
%struct.conn = type { ptr, i32, i8, i8, i8, i8, i8, i8, i8, i8, ptr, i32, i32, i32, %struct.event, i16, i16, ptr, ptr, i32, i32, ptr, ptr, ptr, i32, ptr, i32, i32, i32, i32, i32, i32, i32, %struct.sockaddr_in6, i32, i8, %struct.anon.8, %union.protocol_binary_request_header, i64, i64, i16, i32, i32, ptr, ptr, ptr, ptr, ptr, ptr }
%struct.event = type { %struct.event_callback, %union.anon.0, i32, ptr, %union.anon.2, i16, i16, %struct.timeval }
%struct.event_callback = type { %struct.anon, i16, i8, i8, %union.anon, ptr }
%struct.anon = type { ptr, ptr }
%union.anon = type { ptr }
%union.anon.0 = type { %struct.anon.1 }
%struct.anon.1 = type { ptr, ptr }
%union.anon.2 = type { %struct.anon.3 }
%struct.anon.3 = type { %struct.anon.4, %struct.timeval }
%struct.anon.4 = type { ptr, ptr }
%struct.timeval = type { i64, i64 }
%struct.sockaddr_in6 = type { i16, i16, i32, %struct.in6_addr, i32 }
%struct.in6_addr = type { %union.anon.7 }
%union.anon.7 = type { [4 x i32] }
%struct.anon.8 = type { ptr, i64, i64 }
%union.protocol_binary_request_header = type { %struct.anon.9 }
%struct.anon.9 = type { i8, i8, i16, i8, i8, i16, i32, i32, i64 }
%struct._stritem = type { ptr, ptr, ptr, i32, i32, i32, i16, i16, i8, i8, [0 x %union.anon.11] }
%union.anon.11 = type { i64 }

@stderr = external global ptr, align 8
@settings = external global %struct.settings, align 8
@.str.6 = private unnamed_addr constant [14 x i8] c"Out of memory\00", align 1
@.str.7 = private unnamed_addr constant [16 x i8] c"Unknown command\00", align 1
@.str.8 = private unnamed_addr constant [10 x i8] c"Not found\00", align 1
@.str.9 = private unnamed_addr constant [18 x i8] c"Invalid arguments\00", align 1
@.str.10 = private unnamed_addr constant [21 x i8] c"Data exists for key.\00", align 1
@.str.11 = private unnamed_addr constant [11 x i8] c"Too large.\00", align 1
@.str.12 = private unnamed_addr constant [47 x i8] c"Non-numeric server-side value for incr or decr\00", align 1
@.str.13 = private unnamed_addr constant [12 x i8] c"Not stored.\00", align 1
@.str.14 = private unnamed_addr constant [14 x i8] c"Auth failure.\00", align 1
@.str.15 = private unnamed_addr constant [16 x i8] c"UNHANDLED ERROR\00", align 1
@.str.16 = private unnamed_addr constant [25 x i8] c">%d UNHANDLED ERROR: %d\0A\00", align 1
@.str.17 = private unnamed_addr constant [26 x i8] c">%d Writing an error: %s\0A\00", align 1

; Function Attrs: nounwind uwtable
define internal ptr @binary_get_key(ptr noundef %0) #0 {
  %2 = alloca ptr, align 8
  store ptr %0, ptr %2, align 8, !tbaa !4
  %3 = load ptr, ptr %2, align 8, !tbaa !4
  %4 = getelementptr inbounds nuw %struct.conn, ptr %3, i32 0, i32 18
  %5 = load ptr, ptr %4, align 8, !tbaa !69
  %6 = load ptr, ptr %2, align 8, !tbaa !4
  %7 = getelementptr inbounds nuw %struct.conn, ptr %6, i32 0, i32 37
  %8 = getelementptr inbounds nuw %struct.anon.9, ptr %7, i32 0, i32 2
  %9 = load i16, ptr %8, align 2, !tbaa !34
  %10 = zext i16 %9 to i32
  %11 = sext i32 %10 to i64
  %12 = sub i64 0, %11
  %13 = getelementptr inbounds i8, ptr %5, i64 %12
  ret ptr %13
}

; Function Attrs: nounwind uwtable
define dso_local void @write_bin_error(ptr noundef %0, i32 noundef %1, ptr noundef %2, i32 noundef %3) #0 {
  %5 = alloca ptr, align 8
  %6 = alloca i32, align 4
  %7 = alloca ptr, align 8
  %8 = alloca i32, align 4
  %9 = alloca i64, align 8
  store ptr %0, ptr %5, align 8, !tbaa !4
  store i32 %1, ptr %6, align 4, !tbaa !30
  store ptr %2, ptr %7, align 8, !tbaa !61
  store i32 %3, ptr %8, align 4, !tbaa !30
  call void @llvm.lifetime.start.p0(i64 8, ptr %9) #8
  %10 = load ptr, ptr %7, align 8, !tbaa !61
  %11 = icmp ne ptr %10, null
  br i1 %11, label %31, label %12

12:                                               ; preds = %4
  %13 = load i32, ptr %6, align 4, !tbaa !30
  switch i32 %13, label %23 [
    i32 130, label %14
    i32 129, label %15
    i32 1, label %16
    i32 4, label %17
    i32 2, label %18
    i32 3, label %19
    i32 6, label %20
    i32 5, label %21
    i32 32, label %22
  ]

14:                                               ; preds = %12
  store ptr @.str.6, ptr %7, align 8, !tbaa !61
  br label %30

15:                                               ; preds = %12
  store ptr @.str.7, ptr %7, align 8, !tbaa !61
  br label %30

16:                                               ; preds = %12
  store ptr @.str.8, ptr %7, align 8, !tbaa !61
  br label %30

17:                                               ; preds = %12
  store ptr @.str.9, ptr %7, align 8, !tbaa !61
  br label %30

18:                                               ; preds = %12
  store ptr @.str.10, ptr %7, align 8, !tbaa !61
  br label %30

19:                                               ; preds = %12
  store ptr @.str.11, ptr %7, align 8, !tbaa !61
  br label %30

20:                                               ; preds = %12
  store ptr @.str.12, ptr %7, align 8, !tbaa !61
  br label %30

21:                                               ; preds = %12
  store ptr @.str.13, ptr %7, align 8, !tbaa !61
  br label %30

22:                                               ; preds = %12
  store ptr @.str.14, ptr %7, align 8, !tbaa !61
  br label %30

23:                                               ; preds = %12
  store ptr @.str.15, ptr %7, align 8, !tbaa !61
  %24 = load ptr, ptr @stderr, align 8, !tbaa !28
  %25 = load ptr, ptr %5, align 8, !tbaa !4
  %26 = getelementptr inbounds nuw %struct.conn, ptr %25, i32 0, i32 1
  %27 = load i32, ptr %26, align 8, !tbaa !42
  %28 = load i32, ptr %6, align 4, !tbaa !30
  %29 = call i32 (ptr, ptr, ...) @fprintf(ptr noundef %24, ptr noundef @.str.16, i32 noundef %27, i32 noundef %28) #8
  br label %30

30:                                               ; preds = %23, %22, %21, %20, %19, %18, %17, %16, %15, %14
  br label %31

31:                                               ; preds = %30, %4
  %32 = load i32, ptr getelementptr inbounds nuw (%struct.settings, ptr @settings, i32 0, i32 5), align 8, !tbaa !62
  %33 = icmp sgt i32 %32, 1
  br i1 %33, label %34, label %41

34:                                               ; preds = %31
  %35 = load ptr, ptr @stderr, align 8, !tbaa !28
  %36 = load ptr, ptr %5, align 8, !tbaa !4
  %37 = getelementptr inbounds nuw %struct.conn, ptr %36, i32 0, i32 1
  %38 = load i32, ptr %37, align 8, !tbaa !42
  %39 = load ptr, ptr %7, align 8, !tbaa !61
  %40 = call i32 (ptr, ptr, ...) @fprintf(ptr noundef %35, ptr noundef @.str.17, i32 noundef %38, ptr noundef %39) #8
  br label %41

41:                                               ; preds = %34, %31
  %42 = load ptr, ptr %7, align 8, !tbaa !61
  %43 = call i64 @strlen(ptr noundef %42) #9
  store i64 %43, ptr %9, align 8, !tbaa !41
  %44 = load ptr, ptr %5, align 8, !tbaa !4
  %45 = load i32, ptr %6, align 4, !tbaa !30
  %46 = trunc i32 %45 to i16
  %47 = load i64, ptr %9, align 8, !tbaa !41
  %48 = trunc i64 %47 to i32
  call void @add_bin_header(ptr noundef %44, i16 noundef zeroext %46, i8 noundef zeroext 0, i16 noundef zeroext 0, i32 noundef %48)
  %49 = load i64, ptr %9, align 8, !tbaa !41
  %50 = icmp ugt i64 %49, 0
  br i1 %50, label %51, label %58

51:                                               ; preds = %41
  %52 = load ptr, ptr %5, align 8, !tbaa !4
  %53 = getelementptr inbounds nuw %struct.conn, ptr %52, i32 0, i32 21
  %54 = load ptr, ptr %53, align 8, !tbaa !66
  %55 = load ptr, ptr %7, align 8, !tbaa !61
  %56 = load i64, ptr %9, align 8, !tbaa !41
  %57 = trunc i64 %56 to i32
  call void @resp_add_iov(ptr noundef %54, ptr noundef %55, i32 noundef %57)
  br label %58

58:                                               ; preds = %51, %41
  %59 = load i32, ptr %8, align 4, !tbaa !30
  %60 = icmp sgt i32 %59, 0
  br i1 %60, label %61, label %66

61:                                               ; preds = %58
  %62 = load i32, ptr %8, align 4, !tbaa !30
  %63 = load ptr, ptr %5, align 8, !tbaa !4
  %64 = getelementptr inbounds nuw %struct.conn, ptr %63, i32 0, i32 26
  store i32 %62, ptr %64, align 8, !tbaa !81
  %65 = load ptr, ptr %5, align 8, !tbaa !4
  call void @conn_set_state(ptr noundef %65, i32 noundef 7)
  br label %68

66:                                               ; preds = %58
  %67 = load ptr, ptr %5, align 8, !tbaa !4
  call void @conn_set_state(ptr noundef %67, i32 noundef 9)
  br label %68

68:                                               ; preds = %66, %61
  call void @llvm.lifetime.end.p0(i64 8, ptr %9) #8
  ret void
}

; Function Attrs: nounwind uwtable
define internal void @process_bin_sasl_auth(ptr noundef %0) #0 {
  %2 = alloca ptr, align 8
  %3 = alloca i16, align 2
  %4 = alloca i32, align 4
  %5 = alloca i32, align 4
  %6 = alloca ptr, align 8
  %7 = alloca ptr, align 8
  store ptr %0, ptr %2, align 8, !tbaa !4
  %8 = load i8, ptr getelementptr inbounds nuw (%struct.settings, ptr @settings, i32 0, i32 25), align 4, !tbaa !78, !range !58, !noundef !59
  %9 = trunc i8 %8 to i1
  br i1 %9, label %22, label %10

10:                                               ; preds = %1
  %11 = load ptr, ptr %2, align 8, !tbaa !4
  %12 = load ptr, ptr %2, align 8, !tbaa !4
  %13 = getelementptr inbounds nuw %struct.conn, ptr %12, i32 0, i32 37
  %14 = getelementptr inbounds nuw %struct.anon.9, ptr %13, i32 0, i32 6
  %15 = load i32, ptr %14, align 8, !tbaa !34
  %16 = load ptr, ptr %2, align 8, !tbaa !4
  %17 = getelementptr inbounds nuw %struct.conn, ptr %16, i32 0, i32 37
  %18 = getelementptr inbounds nuw %struct.anon.9, ptr %17, i32 0, i32 2
  %19 = load i16, ptr %18, align 2, !tbaa !34
  %20 = zext i16 %19 to i32
  %21 = sub i32 %15, %20
  call void @write_bin_error(ptr noundef %11, i32 noundef 129, ptr noundef null, i32 noundef %21)
  br label %108

22:                                               ; preds = %1
  call void @llvm.lifetime.start.p0(i64 2, ptr %3) #8
  %23 = load ptr, ptr %2, align 8, !tbaa !4
  %24 = getelementptr inbounds nuw %struct.conn, ptr %23, i32 0, i32 37
  %25 = getelementptr inbounds nuw %struct.anon.9, ptr %24, i32 0, i32 2
  %26 = load i16, ptr %25, align 2, !tbaa !34
  store i16 %26, ptr %3, align 2, !tbaa !37
  call void @llvm.lifetime.start.p0(i64 4, ptr %4) #8
  %27 = load ptr, ptr %2, align 8, !tbaa !4
  %28 = getelementptr inbounds nuw %struct.conn, ptr %27, i32 0, i32 37
  %29 = getelementptr inbounds nuw %struct.anon.9, ptr %28, i32 0, i32 6
  %30 = load i32, ptr %29, align 8, !tbaa !34
  %31 = load i16, ptr %3, align 2, !tbaa !37
  %32 = zext i16 %31 to i32
  %33 = sub i32 %30, %32
  store i32 %33, ptr %4, align 4, !tbaa !30
  %34 = load i16, ptr %3, align 2, !tbaa !37
  %35 = zext i16 %34 to i32
  %36 = icmp sgt i32 %35, 32
  br i1 %36, label %37, label %41

37:                                               ; preds = %22
  %38 = load ptr, ptr %2, align 8, !tbaa !4
  %39 = load i32, ptr %4, align 4, !tbaa !30
  call void @write_bin_error(ptr noundef %38, i32 noundef 4, ptr noundef null, i32 noundef %39)
  %40 = load ptr, ptr %2, align 8, !tbaa !4
  call void @conn_set_state(ptr noundef %40, i32 noundef 7)
  store i32 1, ptr %5, align 4
  br label %106

41:                                               ; preds = %22
  call void @llvm.lifetime.start.p0(i64 8, ptr %6) #8
  %42 = load ptr, ptr %2, align 8, !tbaa !4
  %43 = call ptr @binary_get_key(ptr noundef %42)
  store ptr %43, ptr %6, align 8, !tbaa !61
  call void @llvm.lifetime.start.p0(i64 8, ptr %7) #8
  %44 = load ptr, ptr %6, align 8, !tbaa !61
  %45 = load i16, ptr %3, align 2, !tbaa !37
  %46 = zext i16 %45 to i64
  %47 = load i32, ptr %4, align 4, !tbaa !30
  %48 = add nsw i32 %47, 2
  %49 = call ptr @item_alloc(ptr noundef %44, i64 noundef %46, i32 noundef 0, i32 noundef 0, i32 noundef %48)
  store ptr %49, ptr %7, align 8, !tbaa !31
  %50 = load ptr, ptr %7, align 8, !tbaa !31
  %51 = icmp eq ptr %50, null
  br i1 %51, label %59, label %52

52:                                               ; preds = %41
  %53 = load ptr, ptr %7, align 8, !tbaa !31
  %54 = getelementptr inbounds nuw %struct._stritem, ptr %53, i32 0, i32 7
  %55 = load i16, ptr %54, align 2, !tbaa !37
  %56 = zext i16 %55 to i32
  %57 = and i32 %56, 32
  %58 = icmp ne i32 %57, 0
  br i1 %58, label %59, label %68

59:                                               ; preds = %52, %41
  %60 = load ptr, ptr %2, align 8, !tbaa !4
  %61 = load i32, ptr %4, align 4, !tbaa !30
  call void @write_bin_error(ptr noundef %60, i32 noundef 130, ptr noundef null, i32 noundef %61)
  %62 = load ptr, ptr %2, align 8, !tbaa !4
  call void @conn_set_state(ptr noundef %62, i32 noundef 7)
  %63 = load ptr, ptr %7, align 8, !tbaa !31
  %64 = icmp ne ptr %63, null
  br i1 %64, label %65, label %67

65:                                               ; preds = %59
  %66 = load ptr, ptr %7, align 8, !tbaa !31
  call void @do_item_remove(ptr noundef %66)
  br label %67

67:                                               ; preds = %65, %59
  store i32 1, ptr %5, align 4
  br label %105

68:                                               ; preds = %52
  %69 = load ptr, ptr %7, align 8, !tbaa !31
  %70 = load ptr, ptr %2, align 8, !tbaa !4
  %71 = getelementptr inbounds nuw %struct.conn, ptr %70, i32 0, i32 25
  store ptr %69, ptr %71, align 8, !tbaa !27
  %72 = load ptr, ptr %7, align 8, !tbaa !31
  %73 = getelementptr inbounds nuw %struct._stritem, ptr %72, i32 0, i32 10
  %74 = load ptr, ptr %7, align 8, !tbaa !31
  %75 = getelementptr inbounds nuw %struct._stritem, ptr %74, i32 0, i32 9
  %76 = load i8, ptr %75, align 1, !tbaa !34
  %77 = zext i8 %76 to i32
  %78 = sext i32 %77 to i64
  %79 = getelementptr inbounds i8, ptr %73, i64 %78
  %80 = getelementptr inbounds i8, ptr %79, i64 1
  %81 = load ptr, ptr %7, align 8, !tbaa !31
  %82 = getelementptr inbounds nuw %struct._stritem, ptr %81, i32 0, i32 7
  %83 = load i16, ptr %82, align 2, !tbaa !37
  %84 = zext i16 %83 to i32
  %85 = and i32 %84, 256
  %86 = icmp ne i32 %85, 0
  %87 = select i1 %86, i64 4, i64 0
  %88 = getelementptr inbounds nuw i8, ptr %80, i64 %87
  %89 = load ptr, ptr %7, align 8, !tbaa !31
  %90 = getelementptr inbounds nuw %struct._stritem, ptr %89, i32 0, i32 7
  %91 = load i16, ptr %90, align 2, !tbaa !37
  %92 = zext i16 %91 to i32
  %93 = and i32 %92, 2
  %94 = icmp ne i32 %93, 0
  %95 = select i1 %94, i64 8, i64 0
  %96 = getelementptr inbounds nuw i8, ptr %88, i64 %95
  %97 = load ptr, ptr %2, align 8, !tbaa !4
  %98 = getelementptr inbounds nuw %struct.conn, ptr %97, i32 0, i32 23
  store ptr %96, ptr %98, align 8, !tbaa !38
  %99 = load i32, ptr %4, align 4, !tbaa !30
  %100 = load ptr, ptr %2, align 8, !tbaa !4
  %101 = getelementptr inbounds nuw %struct.conn, ptr %100, i32 0, i32 24
  store i32 %99, ptr %101, align 8, !tbaa !99
  %102 = load ptr, ptr %2, align 8, !tbaa !4
  call void @conn_set_state(ptr noundef %102, i32 noundef 6)
  %103 = load ptr, ptr %2, align 8, !tbaa !4
  %104 = getelementptr inbounds nuw %struct.conn, ptr %103, i32 0, i32 12
  store i32 10, ptr %104, align 4, !tbaa !9
  store i32 0, ptr %5, align 4
  br label %105

105:                                              ; preds = %68, %67
  call void @llvm.lifetime.end.p0(i64 8, ptr %7) #8
  call void @llvm.lifetime.end.p0(i64 8, ptr %6) #8
  br label %106

106:                                              ; preds = %105, %37
  call void @llvm.lifetime.end.p0(i64 4, ptr %4) #8
  call void @llvm.lifetime.end.p0(i64 2, ptr %3) #8
  %107 = load i32, ptr %5, align 4
  switch i32 %107, label %109 [
    i32 0, label %108
    i32 1, label %108
  ]

108:                                              ; preds = %10, %106, %106
  ret void

109:                                              ; preds = %106
  unreachable
}