; Function Attrs: nounwind uwtable
define internal fastcc void @process_bin_sasl_auth(ptr noundef %0) unnamed_addr #0 {
  %2 = load i8, ptr getelementptr inbounds nuw (i8, ptr @settings, i64 132), align 4, !tbaa !61, !range !53, !noundef !54
  %3 = trunc nuw i8 %2 to i1
  br i1 %3, label %24, label %4

4:                                                ; preds = %1
  %5 = getelementptr inbounds nuw i8, ptr %0, i64 344
  %6 = load i32, ptr %5, align 8, !tbaa !28
  %7 = getelementptr inbounds nuw i8, ptr %0, i64 338
  %8 = load i16, ptr %7, align 2, !tbaa !28
  %9 = zext i16 %8 to i32
  %10 = sub i32 %6, %9
  %11 = load i32, ptr getelementptr inbounds nuw (i8, ptr @settings, i64 32), align 8, !tbaa !57
  %12 = icmp sgt i32 %11, 1
  br i1 %12, label %13, label %18

13:                                               ; preds = %4
  %14 = load ptr, ptr @stderr, align 8, !tbaa !58
  %15 = getelementptr inbounds nuw i8, ptr %0, i64 8
  %16 = load i32, ptr %15, align 8, !tbaa !37
  %17 = tail call i32 (ptr, ptr, ...) @fprintf(ptr noundef %14, ptr noundef nonnull @.str.17, i32 noundef %16, ptr noundef nonnull @.str.7) #12
  br label %18

18:                                               ; preds = %13, %4
  tail call fastcc void @add_bin_header(ptr noundef nonnull %0, i16 noundef zeroext 129, i8 noundef zeroext 0, i16 noundef zeroext 0, i32 noundef 15)
  %19 = getelementptr inbounds nuw i8, ptr %0, i64 208
  %20 = load ptr, ptr %19, align 8, !tbaa !60
  tail call void @resp_add_iov(ptr noundef %20, ptr noundef nonnull @.str.7, i32 noundef 15) #11
  %21 = icmp sgt i32 %10, 0
  br i1 %21, label %22, label %write_bin_error.exit

22:                                               ; preds = %18
  %23 = getelementptr inbounds nuw i8, ptr %0, i64 248
  store i32 %10, ptr %23, align 8, !tbaa !64
  br label %write_bin_error.exit

write_bin_error.exit:                             ; preds = %18, %22
  %.sink.i = phi i32 [ 7, %22 ], [ 9, %18 ]
  tail call void @conn_set_state(ptr noundef nonnull %0, i32 noundef %.sink.i) #11
  br label %93

24:                                               ; preds = %1
  %25 = getelementptr inbounds nuw i8, ptr %0, i64 338
  %26 = load i16, ptr %25, align 2, !tbaa !28
  %27 = getelementptr inbounds nuw i8, ptr %0, i64 344
  %28 = load i32, ptr %27, align 8, !tbaa !28
  %29 = zext i16 %26 to i32
  %30 = sub i32 %28, %29
  %31 = icmp ugt i16 %26, 32
  br i1 %31, label %32, label %46

32:                                               ; preds = %24
  %33 = load i32, ptr getelementptr inbounds nuw (i8, ptr @settings, i64 32), align 8, !tbaa !57
  %34 = icmp sgt i32 %33, 1
  br i1 %34, label %35, label %40

35:                                               ; preds = %32
  %36 = load ptr, ptr @stderr, align 8, !tbaa !58
  %37 = getelementptr inbounds nuw i8, ptr %0, i64 8
  %38 = load i32, ptr %37, align 8, !tbaa !37
  %39 = tail call i32 (ptr, ptr, ...) @fprintf(ptr noundef %36, ptr noundef nonnull @.str.17, i32 noundef %38, ptr noundef nonnull @.str.9) #12
  br label %40

40:                                               ; preds = %35, %32
  tail call fastcc void @add_bin_header(ptr noundef nonnull %0, i16 noundef zeroext 4, i8 noundef zeroext 0, i16 noundef zeroext 0, i32 noundef 17)
  %41 = getelementptr inbounds nuw i8, ptr %0, i64 208
  %42 = load ptr, ptr %41, align 8, !tbaa !60
  tail call void @resp_add_iov(ptr noundef %42, ptr noundef nonnull @.str.9, i32 noundef 17) #11
  %43 = icmp sgt i32 %30, 0
  br i1 %43, label %44, label %write_bin_error.exit37

44:                                               ; preds = %40
  %45 = getelementptr inbounds nuw i8, ptr %0, i64 248
  store i32 %30, ptr %45, align 8, !tbaa !64
  br label %write_bin_error.exit37

write_bin_error.exit37:                           ; preds = %40, %44
  %.sink.i36 = phi i32 [ 7, %44 ], [ 9, %40 ]
  tail call void @conn_set_state(ptr noundef nonnull %0, i32 noundef %.sink.i36) #11
  tail call void @conn_set_state(ptr noundef nonnull %0, i32 noundef 7) #11
  br label %93

46:                                               ; preds = %24
  %47 = getelementptr i8, ptr %0, i64 192
  %.val = load ptr, ptr %47, align 8, !tbaa !69
  %48 = zext nneg i16 %26 to i64
  %49 = sub nsw i64 0, %48
  %50 = getelementptr inbounds i8, ptr %.val, i64 %49
  %51 = add nsw i32 %30, 2
  %52 = tail call ptr @item_alloc(ptr noundef %50, i64 noundef %48, i32 noundef 0, i32 noundef 0, i32 noundef %51) #11
  %53 = icmp eq ptr %52, null
  br i1 %53, label %58, label %54

54:                                               ; preds = %46
  %55 = getelementptr inbounds nuw i8, ptr %52, i64 38
  %56 = load i16, ptr %55, align 2, !tbaa !31
  %57 = and i16 %56, 32
  %.not = icmp eq i16 %57, 0
  br i1 %.not, label %73, label %58

58:                                               ; preds = %54, %46
  %59 = load i32, ptr getelementptr inbounds nuw (i8, ptr @settings, i64 32), align 8, !tbaa !57
  %60 = icmp sgt i32 %59, 1
  br i1 %60, label %61, label %66

61:                                               ; preds = %58
  %62 = load ptr, ptr @stderr, align 8, !tbaa !58
  %63 = getelementptr inbounds nuw i8, ptr %0, i64 8
  %64 = load i32, ptr %63, align 8, !tbaa !37
  %65 = tail call i32 (ptr, ptr, ...) @fprintf(ptr noundef %62, ptr noundef nonnull @.str.17, i32 noundef %64, ptr noundef nonnull @.str.6) #12
  br label %66

66:                                               ; preds = %61, %58
  tail call fastcc void @add_bin_header(ptr noundef nonnull %0, i16 noundef zeroext 130, i8 noundef zeroext 0, i16 noundef zeroext 0, i32 noundef 13)
  %67 = getelementptr inbounds nuw i8, ptr %0, i64 208
  %68 = load ptr, ptr %67, align 8, !tbaa !60
  tail call void @resp_add_iov(ptr noundef %68, ptr noundef nonnull @.str.6, i32 noundef 13) #11
  %69 = icmp sgt i32 %30, 0
  br i1 %69, label %70, label %write_bin_error.exit40

70:                                               ; preds = %66
  %71 = getelementptr inbounds nuw i8, ptr %0, i64 248
  store i32 %30, ptr %71, align 8, !tbaa !64
  br label %write_bin_error.exit40

write_bin_error.exit40:                           ; preds = %66, %70
  %.sink.i39 = phi i32 [ 7, %70 ], [ 9, %66 ]
  tail call void @conn_set_state(ptr noundef nonnull %0, i32 noundef %.sink.i39) #11
  tail call void @conn_set_state(ptr noundef nonnull %0, i32 noundef 7) #11
  br i1 %53, label %93, label %72

72:                                               ; preds = %write_bin_error.exit40
  tail call void @do_item_remove(ptr noundef nonnull %52) #11
  br label %93

73:                                               ; preds = %54
  %74 = getelementptr inbounds nuw i8, ptr %0, i64 240
  store ptr %52, ptr %74, align 8, !tbaa !26
  %75 = getelementptr inbounds nuw i8, ptr %52, i64 48
  %76 = getelementptr inbounds nuw i8, ptr %52, i64 41
  %77 = load i8, ptr %76, align 1, !tbaa !28
  %78 = zext i8 %77 to i64
  %79 = getelementptr inbounds nuw i8, ptr %75, i64 %78
  %80 = getelementptr inbounds nuw i8, ptr %79, i64 1
  %81 = zext i16 %56 to i32
  %82 = lshr i32 %81, 6
  %83 = and i32 %82, 4
  %84 = zext nneg i32 %83 to i64
  %85 = getelementptr inbounds nuw i8, ptr %80, i64 %84
  %86 = shl nuw nsw i32 %81, 2
  %87 = and i32 %86, 8
  %88 = zext nneg i32 %87 to i64
  %89 = getelementptr inbounds nuw i8, ptr %85, i64 %88
  %90 = getelementptr inbounds nuw i8, ptr %0, i64 224
  store ptr %89, ptr %90, align 8, !tbaa !33
  %91 = getelementptr inbounds nuw i8, ptr %0, i64 232
  store i32 %30, ptr %91, align 8, !tbaa !91
  tail call void @conn_set_state(ptr noundef nonnull %0, i32 noundef 6) #11
  %92 = getelementptr inbounds nuw i8, ptr %0, i64 36
  store i32 10, ptr %92, align 4, !tbaa !4
  br label %93

93:                                               ; preds = %write_bin_error.exit37, %write_bin_error.exit40, %72, %73, %write_bin_error.exit
  ret void
}